target datalayout = "e-m:e-p270:32:32-p271:32:32-p272:64:64-i64:64-i128:128-f80:128-n8:16:32:64-S128"
target triple = "x86_64-unknown-linux-gnu"

%"class.std::function.17" = type { %"class.std::_Function_base", ptr }
%"class.std::_Function_base" = type { %"union.std::_Any_data", ptr }
%"union.std::_Any_data" = type { %"union.std::_Nocopy_types" }
%"union.std::_Nocopy_types" = type { { i64, i64 } }
%"class.hermes::vm::GCBase" = type <{ ptr, i32, [4 x i8], i64, %"class.hermes::vm::GCExecTrace", [7 x i8], ptr, ptr, %"class.std::shared_ptr", i32, [4 x i8], %"class.std::function", %"class.std::vector", i8, i8, i8, i8, [4 x i8], %"class.std::chrono::time_point", %"class.std::chrono::duration.0", i64, i64, %"struct.hermes::vm::GCBase::CumulativeHeapStats", %"class.std::__cxx11::basic_string", %"class.std::deque", ptr, %"class.std::recursive_mutex", %"class.hermes::vm::GCBase::IDTracker", [3 x i64], %"class.std::function.17", i32, i8, [3 x i8] }>
%"class.hermes::vm::GCExecTrace" = type { i8 }
%"class.std::shared_ptr" = type { %"class.std::__shared_ptr" }
%"class.std::__shared_ptr" = type { ptr, %"class.std::__shared_count" }
%"class.std::__shared_count" = type { ptr }
%"class.std::function" = type { %"class.std::_Function_base", ptr }
%"class.std::vector" = type { %"struct.std::_Vector_base" }
%"struct.std::_Vector_base" = type { %"struct.std::_Vector_base<hermes::vm::GCAnalyticsEvent, std::allocator<hermes::vm::GCAnalyticsEvent>>::_Vector_impl" }
%"struct.std::_Vector_base<hermes::vm::GCAnalyticsEvent, std::allocator<hermes::vm::GCAnalyticsEvent>>::_Vector_impl" = type { %"struct.std::_Vector_base<hermes::vm::GCAnalyticsEvent, std::allocator<hermes::vm::GCAnalyticsEvent>>::_Vector_impl_data" }
%"struct.std::_Vector_base<hermes::vm::GCAnalyticsEvent, std::allocator<hermes::vm::GCAnalyticsEvent>>::_Vector_impl_data" = type { ptr, ptr, ptr }
%"class.std::chrono::time_point" = type { %"class.std::chrono::duration" }
%"class.std::chrono::duration" = type { i64 }
%"class.std::chrono::duration.0" = type { i64 }
%"struct.hermes::vm::GCBase::CumulativeHeapStats" = type { i32, %"class.hermes::StatsAccumulator", %"class.hermes::StatsAccumulator", i32, %"class.hermes::StatsAccumulator.1", %"class.hermes::StatsAccumulator.1" }
%"class.hermes::StatsAccumulator" = type { i32, double, double, double, double }
%"class.hermes::StatsAccumulator.1" = type { i32, i64, i32, i32, double }
%"class.std::__cxx11::basic_string" = type { %"struct.std::__cxx11::basic_string<char>::_Alloc_hider", i64, %union.anon }
%"struct.std::__cxx11::basic_string<char>::_Alloc_hider" = type { ptr }
%union.anon = type { i64, [8 x i8] }
%"class.std::deque" = type { %"class.std::_Deque_base" }
%"class.std::_Deque_base" = type { %"struct.std::_Deque_base<hermes::vm::WeakRefSlot, std::allocator<hermes::vm::WeakRefSlot>>::_Deque_impl" }
%"struct.std::_Deque_base<hermes::vm::WeakRefSlot, std::allocator<hermes::vm::WeakRefSlot>>::_Deque_impl" = type { %"struct.std::_Deque_base<hermes::vm::WeakRefSlot, std::allocator<hermes::vm::WeakRefSlot>>::_Deque_impl_data" }
%"struct.std::_Deque_base<hermes::vm::WeakRefSlot, std::allocator<hermes::vm::WeakRefSlot>>::_Deque_impl_data" = type { ptr, i64, %"struct.std::_Deque_iterator", %"struct.std::_Deque_iterator" }
%"struct.std::_Deque_iterator" = type { ptr, ptr, ptr, ptr }
%"class.std::recursive_mutex" = type { %"class.std::__recursive_mutex_base" }
%"class.std::__recursive_mutex_base" = type { %union.pthread_mutex_t }
%union.pthread_mutex_t = type { %struct.__pthread_mutex_s }
%struct.__pthread_mutex_s = type { i32, i32, i32, i32, i32, i16, i16, %struct.__pthread_internal_list }
%struct.__pthread_internal_list = type { ptr, ptr }
%"class.hermes::vm::GCBase::IDTracker" = type { %"class.std::recursive_mutex", i32, [4 x i8], %"class.llvh::DenseMap", %"class.llvh::DenseMap", %"class.llvh::DenseMap.8", %"class.llvh::DenseMap.11", %"class.llvh::DenseMap", %"class.llvh::DenseMap.14" }
%"class.llvh::DenseMap.8" = type <{ ptr, i32, i32, i32, [4 x i8] }>
%"class.llvh::DenseMap.11" = type <{ ptr, i32, i32, i32, [4 x i8] }>
%"class.llvh::DenseMap" = type <{ ptr, i32, i32, i32, [4 x i8] }>
%"class.llvh::DenseMap.14" = type <{ ptr, i32, i32, i32, [4 x i8] }>
%"class.hermes::vm::GCBase::GCCycle" = type <{ ptr, %"class.std::__cxx11::basic_string", i8, [7 x i8] }>

; Function Attrs: mustprogress nounwind uwtable
define linkonce_odr hidden noundef nonnull align 8 dereferenceable(8) ptr @_ZNK6hermes2vm6GCBase12getCallbacksEv(ptr noundef nonnull align 8 dereferenceable(741) %this) #0 comdat align 2 {
entry:
  %this.addr = alloca ptr, align 8
  store ptr %this, ptr %this.addr, align 8
  %this1 = load ptr, ptr %this.addr, align 8
  %gcCallbacks_ = getelementptr inbounds %"class.hermes::vm::GCBase", ptr %this1, i32 0, i32 6
  %0 = load ptr, ptr %gcCallbacks_, align 8
  ret ptr %0
}

; Function Attrs: mustprogress nounwind uwtable
define hidden void @_ZN6hermes2vm6GCBase7GCCycleC2ERS1_NSt7__cxx1112basic_stringIcSt11char_traitsIcESaIcEEE(ptr noundef nonnull align 8 dereferenceable(48) %this, ptr noundef nonnull align 8 dereferenceable(741) %gc, ptr noundef %extraInfo) unnamed_addr #0 align 2 {
entry:
  %this.addr = alloca ptr, align 8
  %gc.addr = alloca ptr, align 8
  %extraInfo.indirect_addr = alloca ptr, align 8
  store ptr %this, ptr %this.addr, align 8
  store ptr %gc, ptr %gc.addr, align 8
  store ptr %extraInfo, ptr %extraInfo.indirect_addr, align 8
  %this1 = load ptr, ptr %this.addr, align 8
  %gc_ = getelementptr inbounds %"class.hermes::vm::GCBase::GCCycle", ptr %this1, i32 0, i32 0
  %0 = load ptr, ptr %gc.addr, align 8
  store ptr %0, ptr %gc_, align 8
  %extraInfo_ = getelementptr inbounds %"class.hermes::vm::GCBase::GCCycle", ptr %this1, i32 0, i32 1
  call void @_ZNSt7__cxx1112basic_stringIcSt11char_traitsIcESaIcEEC1EOS4_(ptr noundef nonnull align 8 dereferenceable(32) %extraInfo_, ptr noundef nonnull align 8 dereferenceable(32) %extraInfo) #14
  %previousInGC_ = getelementptr inbounds %"class.hermes::vm::GCBase::GCCycle", ptr %this1, i32 0, i32 2
  %gc_2 = getelementptr inbounds %"class.hermes::vm::GCBase::GCCycle", ptr %this1, i32 0, i32 0
  %1 = load ptr, ptr %gc_2, align 8
  %inGC_ = getelementptr inbounds %"class.hermes::vm::GCBase", ptr %1, i32 0, i32 14
  %2 = load i8, ptr %inGC_, align 1
  %tobool = trunc i8 %2 to i1
  %frombool = zext i1 %tobool to i8
  store i8 %frombool, ptr %previousInGC_, align 8
  %previousInGC_3 = getelementptr inbounds %"class.hermes::vm::GCBase::GCCycle", ptr %this1, i32 0, i32 2
  %3 = load i8, ptr %previousInGC_3, align 8
  %tobool4 = trunc i8 %3 to i1
  br i1 %tobool4, label %if.end, label %if.then

if.then:                                          ; preds = %entry
  %gc_5 = getelementptr inbounds %"class.hermes::vm::GCBase::GCCycle", ptr %this1, i32 0, i32 0
  %4 = load ptr, ptr %gc_5, align 8
  %call = call noundef nonnull align 8 dereferenceable(8) ptr @_ZNK6hermes2vm6GCBase12getCallbacksEv(ptr noundef nonnull align 8 dereferenceable(741) %4)
  %extraInfo_6 = getelementptr inbounds %"class.hermes::vm::GCBase::GCCycle", ptr %this1, i32 0, i32 1
  %vtable = load ptr, ptr %call, align 8
  %vfn = getelementptr inbounds ptr, ptr %vtable, i64 13
  %5 = load ptr, ptr %vfn, align 8
  call void %5(ptr noundef nonnull align 8 dereferenceable(8) %call, i32 noundef 0, ptr noundef nonnull align 8 dereferenceable(32) %extraInfo_6)
  %gc_7 = getelementptr inbounds %"class.hermes::vm::GCBase::GCCycle", ptr %this1, i32 0, i32 0
  %6 = load ptr, ptr %gc_7, align 8
  %inGC_8 = getelementptr inbounds %"class.hermes::vm::GCBase", ptr %6, i32 0, i32 14
  store i8 1, ptr %inGC_8, align 1
  br label %if.end

if.end:                                           ; preds = %if.then, %entry
  ret void
}