; Function Attrs: mustprogress nounwind uwtable
define hidden void @_ZN6hermes2vm6GCBase7GCCycleC2ERS1_NSt7__cxx1112basic_stringIcSt11char_traitsIcESaIcEEE(ptr noundef nonnull align 8 dereferenceable(48) %this, ptr noundef nonnull align 8 dereferenceable(741) %gc, ptr noundef nonnull %extraInfo) unnamed_addr #0 align 2 {
entry:
  store ptr %gc, ptr %this, align 8
  %extraInfo_ = getelementptr inbounds i8, ptr %this, i64 8
  tail call void @_ZNSt7__cxx1112basic_stringIcSt11char_traitsIcESaIcEEC1EOS4_(ptr noundef nonnull align 8 dereferenceable(32) %extraInfo_, ptr noundef nonnull align 8 dereferenceable(32) %extraInfo) #27
  %previousInGC_ = getelementptr inbounds i8, ptr %this, i64 40
  %0 = load ptr, ptr %this, align 8
  %inGC_ = getelementptr inbounds i8, ptr %0, i64 129
  %1 = load i8, ptr %inGC_, align 1
  %2 = and i8 %1, 1
  %tobool.not = icmp eq i8 %2, 0
  store i8 %2, ptr %previousInGC_, align 8
  br i1 %tobool.not, label %if.then, label %if.end

if.then:                                          ; preds = %entry
  %gcCallbacks_.i = getelementptr inbounds i8, ptr %0, i64 32
  %3 = load ptr, ptr %gcCallbacks_.i, align 8
  %vtable = load ptr, ptr %3, align 8
  %vfn = getelementptr inbounds i8, ptr %vtable, i64 104
  %4 = load ptr, ptr %vfn, align 8
  tail call void %4(ptr noundef nonnull align 8 dereferenceable(8) %3, i32 noundef 0, ptr noundef nonnull align 8 dereferenceable(32) %extraInfo_) #27
  %5 = load ptr, ptr %this, align 8
  %inGC_8 = getelementptr inbounds i8, ptr %5, i64 129
  store i8 1, ptr %inGC_8, align 1
  br label %if.end

if.end:                                           ; preds = %if.then, %entry
  ret void
}